(dp0
S'parts'
p1
(dp2
S'ASBV-1'
p3
(dp4
S'dotbracket'
p5
ccollections
Counter
p6
((dp7
S'(((((((((......((((((.......(((...(((....)))..)))...(((....))).))))))..)))))))))'
p8
F1.0
stp9
Rp10
sS'sequence'
p11
S'GGGACGGGCCAUCAUCUAUCCCUGAAGAGACGAAGGCUUCGGCCAAGUCGAAACGGAAACGUCGGAUAGUCGCCCGUCCC'
p12
ssS'ASBV-3'
p13
(dp14
g5
g6
((dp15
S'(((((((((......(((((((......((((.((((....))))))))...(((....))))))))))..)))))))))'
p16
F0.666
sS'(((((((((......(((((((......(((((.(((....))))))))...(((....))))))))))..)))))))))'
p17
F0.334
stp18
Rp19
sg11
S'GGGACGGGCCAUCAUCUAUCCCUGAAGAGACGAAGGCUUCGGCCUCGUCGAAACGGAAACGUGGGAUAGUCGCCCGUCCC'
p20
ssS'sTRSV-2'
p21
(dp22
g5
g6
((dp23
S'((((((((.((((((.......)))))).......(((((......)))))...))))))))'
p24
F1.0
stp25
Rp26
sg11
S'GGGCCUGUCACCGGAUGUGCUUUCCGGUCUGAUGAGUCCCUGAAAUGGGACGAAACAGGCCC'
p27
ssS'Sman'
p28
(dp29
g5
g6
((dp30
S'.(((....)))(((((((.((((((....((((....))))....)))))).......((((......))))...)))))))'
p31
F1.0
stp32
Rp33
sg11
S'GGGCGAAAGCCGGCGCGUCCUGGAUUCCACUGCUUCGGCAGGUACAUCCAGCUGAUGAGUCCCAAAUAGGACGAAACGCGCU'
p34
sss.